target datalayout = "e-m:e-p270:32:32-p271:32:32-p272:64:64-i64:64-i128:128-f80:128-n8:16:32:64-S128"
target triple = "x86_64-pc-linux-gnu"

%struct.H5C_class_t = type { i32, ptr, i32, i32, ptr, ptr, ptr, ptr, ptr, ptr, ptr, ptr, ptr, ptr }

@H5HF_init_g = external global i8, align 1
@H5_libterm_g = external global i8, align 1
@.str = private unnamed_addr constant [101 x i8] c"generated/home/dtcxzyw/WorkSpace/Projects/compilers/llvm-opt-benchmark/bench/hdf5/hdf5/src/H5HFdbg.c\00", align 1
@H5E_HEAP_g = external global i64, align 8
@__func__.H5HF_hdr_debug = private unnamed_addr constant [15 x i8] c"H5HF_hdr_debug\00", align 1
@H5E_CANTPROTECT_g = external global i64, align 8
@.str.43 = private unnamed_addr constant [38 x i8] c"unable to protect fractal heap header\00", align 1
@H5AC_FHEAP_HDR = external constant [1 x %struct.H5C_class_t], align 16
@H5E_PROTECT_g = external global i64, align 8
@.str.44 = private unnamed_addr constant [38 x i8] c"unable to release fractal heap header\00", align 1

; Function Attrs: nounwind uwtable
define i32 @H5HF_hdr_debug(ptr noundef %0, i64 noundef %1, ptr noundef %2, i32 noundef %3, i32 noundef %4) #0 {
  %6 = alloca ptr, align 8
  %7 = alloca i64, align 8
  %8 = alloca ptr, align 8
  %9 = alloca i32, align 4
  %10 = alloca i32, align 4
  %11 = alloca ptr, align 8
  %12 = alloca i32, align 4
  %13 = alloca i8, align 1
  store ptr %0, ptr %6, align 8, !tbaa !108
  store i64 %1, ptr %7, align 8, !tbaa !20
  store ptr %2, ptr %8, align 8, !tbaa !9
  store i32 %3, ptr %9, align 4, !tbaa !11
  store i32 %4, ptr %10, align 4, !tbaa !11
  call void @llvm.lifetime.start.p0(i64 8, ptr %11) #8
  store ptr null, ptr %11, align 8, !tbaa !22
  call void @llvm.lifetime.start.p0(i64 4, ptr %12) #8
  store i32 0, ptr %12, align 4, !tbaa !11
  call void @llvm.lifetime.start.p0(i64 1, ptr %13) #8
  store i8 0, ptr %13, align 1, !tbaa !15
  %14 = load i8, ptr @H5HF_init_g, align 1, !tbaa !15, !range !17, !noundef !18
  %15 = trunc i8 %14 to i1
  br i1 %15, label %20, label %16

16:                                               ; preds = %5
  %17 = load i8, ptr @H5_libterm_g, align 1, !tbaa !15, !range !17, !noundef !18
  %18 = trunc i8 %17 to i1
  %19 = xor i1 %18, true
  br label %20

20:                                               ; preds = %16, %5
  %21 = phi i1 [ false, %5 ], [ %19, %16 ]
  %22 = xor i1 %21, true
  %23 = xor i1 %22, true
  %24 = zext i1 %23 to i32
  %25 = sext i32 %24 to i64
  %26 = call i64 @llvm.expect.i64(i64 %25, i64 0)
  %27 = icmp ne i64 %26, 0
  br i1 %27, label %28, label %29

28:                                               ; preds = %20
  store i8 1, ptr @H5HF_init_g, align 1, !tbaa !15
  br label %29

29:                                               ; preds = %28, %20
  %30 = load i8, ptr @H5HF_init_g, align 1, !tbaa !15, !range !17, !noundef !18
  %31 = trunc i8 %30 to i1
  br i1 %31, label %36, label %32

32:                                               ; preds = %29
  %33 = load i8, ptr @H5_libterm_g, align 1, !tbaa !15, !range !17, !noundef !18
  %34 = trunc i8 %33 to i1
  %35 = xor i1 %34, true
  br label %36

36:                                               ; preds = %32, %29
  %37 = phi i1 [ true, %29 ], [ %35, %32 ]
  %38 = xor i1 %37, true
  %39 = xor i1 %38, true
  %40 = zext i1 %39 to i32
  %41 = sext i32 %40 to i64
  %42 = call i64 @llvm.expect.i64(i64 %41, i64 1)
  %43 = icmp ne i64 %42, 0
  br i1 %43, label %44, label %99

44:                                               ; preds = %36
  %45 = load ptr, ptr %6, align 8, !tbaa !108
  %46 = load i64, ptr %7, align 8, !tbaa !20
  %47 = call ptr @H5HF__hdr_protect(ptr noundef %45, i64 noundef %46, i32 noundef 128)
  store ptr %47, ptr %11, align 8, !tbaa !22
  %48 = icmp eq ptr null, %47
  br i1 %48, label %49, label %68

49:                                               ; preds = %44
  br label %50

50:                                               ; preds = %49
  br label %51

51:                                               ; preds = %50
  br label %52

52:                                               ; preds = %51
  %53 = load i64, ptr @H5E_HEAP_g, align 8, !tbaa !20
  %54 = load i64, ptr @H5E_CANTPROTECT_g, align 8, !tbaa !20
  %55 = call i32 (ptr, ptr, i32, i64, i64, ptr, ...) @H5E_printf_stack(ptr noundef @.str, ptr noundef @__func__.H5HF_hdr_debug, i32 noundef 332, i64 noundef %53, i64 noundef %54, ptr noundef @.str.43)
  br label %56

56:                                               ; preds = %52
  br label %57

57:                                               ; preds = %56
  store i8 1, ptr %13, align 1, !tbaa !15
  %58 = load i8, ptr %13, align 1, !tbaa !15, !range !17, !noundef !18
  %59 = trunc i8 %58 to i1
  %60 = zext i1 %59 to i8
  store i8 %60, ptr %13, align 1, !tbaa !15
  br label %61

61:                                               ; preds = %57
  br label %62

62:                                               ; preds = %61
  br label %63

63:                                               ; preds = %62
  store i32 -1, ptr %12, align 4, !tbaa !11
  br label %73

64:                                               ; No predecessors!
  br label %65

65:                                               ; preds = %64
  br label %66

66:                                               ; preds = %65
  br label %67

67:                                               ; preds = %66
  br label %68

68:                                               ; preds = %67, %44
  %69 = load ptr, ptr %11, align 8, !tbaa !22
  %70 = load ptr, ptr %8, align 8, !tbaa !9
  %71 = load i32, ptr %9, align 4, !tbaa !11
  %72 = load i32, ptr %10, align 4, !tbaa !11
  call void @H5HF_hdr_print(ptr noundef %69, i1 noundef zeroext false, ptr noundef %70, i32 noundef %71, i32 noundef %72)
  br label %73

73:                                               ; preds = %68, %63
  %74 = load ptr, ptr %11, align 8, !tbaa !22
  %75 = icmp ne ptr %74, null
  br i1 %75, label %76, label %98

76:                                               ; preds = %73
  %77 = load ptr, ptr %6, align 8, !tbaa !108
  %78 = load i64, ptr %7, align 8, !tbaa !20
  %79 = load ptr, ptr %11, align 8, !tbaa !22
  %80 = call i32 @H5AC_unprotect(ptr noundef %77, ptr noundef @H5AC_FHEAP_HDR, i64 noundef %78, ptr noundef %79, i32 noundef 0)
  %81 = icmp slt i32 %80, 0
  br i1 %81, label %82, label %98

82:                                               ; preds = %76
  br label %83

83:                                               ; preds = %82
  br label %84

84:                                               ; preds = %83
  br label %85

85:                                               ; preds = %84
  %86 = load i64, ptr @H5E_HEAP_g, align 8, !tbaa !20
  %87 = load i64, ptr @H5E_PROTECT_g, align 8, !tbaa !20
  %88 = call i32 (ptr, ptr, i32, i64, i64, ptr, ...) @H5E_printf_stack(ptr noundef @.str, ptr noundef @__func__.H5HF_hdr_debug, i32 noundef 339, i64 noundef %86, i64 noundef %87, ptr noundef @.str.44)
  br label %89

89:                                               ; preds = %85
  br label %90

90:                                               ; preds = %89
  store i8 1, ptr %13, align 1, !tbaa !15
  %91 = load i8, ptr %13, align 1, !tbaa !15, !range !17, !noundef !18
  %92 = trunc i8 %91 to i1
  %93 = zext i1 %92 to i8
  store i8 %93, ptr %13, align 1, !tbaa !15
  br label %94

94:                                               ; preds = %90
  br label %95

95:                                               ; preds = %94
  store i32 -1, ptr %12, align 4, !tbaa !11
  br label %96

96:                                               ; preds = %95
  br label %97

97:                                               ; preds = %96
  br label %98

98:                                               ; preds = %97, %76, %73
  br label %99

99:                                               ; preds = %98, %36
  %100 = load i32, ptr %12, align 4, !tbaa !11
  call void @llvm.lifetime.end.p0(i64 1, ptr %13) #8
  call void @llvm.lifetime.end.p0(i64 4, ptr %12) #8
  call void @llvm.lifetime.end.p0(i64 8, ptr %11) #8
  ret i32 %100
}