; Function Attrs: nounwind uwtable
define range(i32 -1, 1) i32 @H5HF_hdr_debug(ptr noundef %0, i64 noundef %1, ptr noundef %2, i32 noundef %3, i32 noundef %4) local_unnamed_addr #0 {
  %6 = load i8, ptr @H5HF_init_g, align 1, !tbaa !3, !range !7, !noundef !8
  %7 = trunc nuw i8 %6 to i1
  %8 = load i8, ptr @H5_libterm_g, align 1, !range !7
  %9 = trunc nuw i8 %8 to i1
  %10 = select i1 %7, i1 true, i1 %9
  br i1 %10, label %11, label %.thread, !prof !9

.thread:                                          ; preds = %5
  store i8 1, ptr @H5HF_init_g, align 1, !tbaa !3
  br label %14

11:                                               ; preds = %5
  %12 = xor i1 %9, true
  %13 = select i1 %7, i1 true, i1 %12
  br i1 %13, label %14, label %27, !prof !100

14:                                               ; preds = %.thread, %11
  %15 = tail call ptr @H5HF__hdr_protect(ptr noundef %0, i64 noundef %1, i32 noundef 128) #9
  %16 = icmp eq ptr %15, null
  br i1 %16, label %.thread14, label %20

.thread14:                                        ; preds = %14
  %17 = load i64, ptr @H5E_HEAP_g, align 8, !tbaa !11
  %18 = load i64, ptr @H5E_CANTPROTECT_g, align 8, !tbaa !11
  %19 = tail call i32 (ptr, ptr, i32, i64, i64, ptr, ...) @H5E_printf_stack(ptr noundef nonnull @.str, ptr noundef nonnull @__func__.H5HF_hdr_debug, i32 noundef 332, i64 noundef %17, i64 noundef %18, ptr noundef nonnull @.str.43) #9
  br label %27

20:                                               ; preds = %14
  tail call void @H5HF_hdr_print(ptr noundef nonnull %15, i1 noundef zeroext false, ptr noundef %2, i32 noundef %3, i32 noundef %4)
  %21 = tail call i32 @H5AC_unprotect(ptr noundef %0, ptr noundef nonnull @H5AC_FHEAP_HDR, i64 noundef %1, ptr noundef nonnull %15, i32 noundef 0) #9
  %22 = icmp slt i32 %21, 0
  br i1 %22, label %23, label %27

23:                                               ; preds = %20
  %24 = load i64, ptr @H5E_HEAP_g, align 8, !tbaa !11
  %25 = load i64, ptr @H5E_PROTECT_g, align 8, !tbaa !11
  %26 = tail call i32 (ptr, ptr, i32, i64, i64, ptr, ...) @H5E_printf_stack(ptr noundef nonnull @.str, ptr noundef nonnull @__func__.H5HF_hdr_debug, i32 noundef 339, i64 noundef %24, i64 noundef %25, ptr noundef nonnull @.str.44) #9
  br label %27

27:                                               ; preds = %.thread14, %20, %23, %11
  %.0 = phi i32 [ -1, %23 ], [ 0, %20 ], [ 0, %11 ], [ -1, %.thread14 ]
  ret i32 %.0
}